target datalayout = "e-m:e-p270:32:32-p271:32:32-p272:64:64-i64:64-i128:128-f80:128-n8:16:32:64-S128"
target triple = "x86_64-pc-linux-gnu"

@.str.6 = private unnamed_addr constant [3 x i8] c"vh\00", align 1
@globalUtilOptind = external global i32, align 4
@.str.7 = private unnamed_addr constant [2 x i8] c"r\00", align 1
@.str.8 = private unnamed_addr constant [30 x i8] c"Cannot open input file \22%s\22. \00", align 1
@.str.9 = private unnamed_addr constant [8 x i8] c".genlib\00", align 1
@.str.10 = private unnamed_addr constant [5 x i8] c".lib\00", align 1
@.str.11 = private unnamed_addr constant [5 x i8] c".gen\00", align 1
@.str.12 = private unnamed_addr constant [3 x i8] c".g\00", align 1
@.str.13 = private unnamed_addr constant [19 x i8] c"Did you mean \22%s\22?\00", align 1
@.str.14 = private unnamed_addr constant [2 x i8] c"\0A\00", align 1
@.str.15 = private unnamed_addr constant [33 x i8] c"Reading LUT library has failed.\0A\00", align 1
@.str.16 = private unnamed_addr constant [24 x i8] c"\0Ausage: read_lut [-vh]\0A\00", align 1
@.str.17 = private unnamed_addr constant [47 x i8] c"\09          read the LUT library from the file\0A\00", align 1
@.str.18 = private unnamed_addr constant [62 x i8] c"\09-v      : toggles enabling of verbose output [default = %s]\0A\00", align 1
@.str.19 = private unnamed_addr constant [4 x i8] c"yes\00", align 1
@.str.20 = private unnamed_addr constant [3 x i8] c"no\00", align 1
@.str.21 = private unnamed_addr constant [36 x i8] c"\09-h      : print the command usage\0A\00", align 1
@.str.22 = private unnamed_addr constant [43 x i8] c"\09                                        \0A\00", align 1
@.str.23 = private unnamed_addr constant [43 x i8] c"\09          File format for a LUT library:\0A\00", align 1
@.str.24 = private unnamed_addr constant [43 x i8] c"\09          (the default library is shown)\0A\00", align 1
@.str.25 = private unnamed_addr constant [49 x i8] c"\09          # The area/delay of k-variable LUTs:\0A\00", align 1
@.str.26 = private unnamed_addr constant [30 x i8] c"\09          # k  area   delay\0A\00", align 1
@.str.27 = private unnamed_addr constant [28 x i8] c"\09          1      1      1\0A\00", align 1
@.str.28 = private unnamed_addr constant [28 x i8] c"\09          2      2      2\0A\00", align 1
@.str.29 = private unnamed_addr constant [28 x i8] c"\09          3      4      3\0A\00", align 1
@.str.30 = private unnamed_addr constant [28 x i8] c"\09          4      8      4\0A\00", align 1
@.str.31 = private unnamed_addr constant [28 x i8] c"\09          5     16      5\0A\00", align 1
@.str.32 = private unnamed_addr constant [28 x i8] c"\09          6     32      6\0A\00", align 1

; Function Attrs: nounwind uwtable
define internal i32 @If_CommandReadLut(ptr noundef %0, i32 noundef %1, ptr noundef %2) #0 {
  %4 = alloca i32, align 4
  %5 = alloca ptr, align 8
  %6 = alloca i32, align 4
  %7 = alloca ptr, align 8
  %8 = alloca ptr, align 8
  %9 = alloca ptr, align 8
  %10 = alloca ptr, align 8
  %11 = alloca ptr, align 8
  %12 = alloca ptr, align 8
  %13 = alloca ptr, align 8
  %14 = alloca i32, align 4
  %15 = alloca i32, align 4
  %16 = alloca i32, align 4
  store ptr %0, ptr %5, align 8, !tbaa !3
  store i32 %1, ptr %6, align 4, !tbaa !8
  store ptr %2, ptr %7, align 8, !tbaa !10
  call void @llvm.lifetime.start.p0(i64 8, ptr %8) #5
  call void @llvm.lifetime.start.p0(i64 8, ptr %9) #5
  call void @llvm.lifetime.start.p0(i64 8, ptr %10) #5
  call void @llvm.lifetime.start.p0(i64 8, ptr %11) #5
  call void @llvm.lifetime.start.p0(i64 8, ptr %12) #5
  call void @llvm.lifetime.start.p0(i64 8, ptr %13) #5
  call void @llvm.lifetime.start.p0(i64 4, ptr %14) #5
  call void @llvm.lifetime.start.p0(i64 4, ptr %15) #5
  %17 = load ptr, ptr %5, align 8, !tbaa !3
  %18 = call ptr @Abc_FrameReadNtk(ptr noundef %17)
  store ptr %18, ptr %12, align 8, !tbaa !12
  %19 = load ptr, ptr %5, align 8, !tbaa !3
  %20 = call ptr @Abc_FrameReadOut(ptr noundef %19)
  store ptr %20, ptr %9, align 8, !tbaa !14
  %21 = load ptr, ptr %5, align 8, !tbaa !3
  %22 = call ptr @Abc_FrameReadErr(ptr noundef %21)
  store ptr %22, ptr %10, align 8, !tbaa !14
  store i32 1, ptr %14, align 4, !tbaa !8
  call void (...) @Extra_UtilGetoptReset()
  br label %23

23:                                               ; preds = %35, %3
  %24 = load i32, ptr %6, align 4, !tbaa !8
  %25 = load ptr, ptr %7, align 8, !tbaa !10
  %26 = call i32 @Extra_UtilGetopt(i32 noundef %24, ptr noundef %25, ptr noundef @.str.6)
  store i32 %26, ptr %15, align 4, !tbaa !8
  %27 = icmp ne i32 %26, -1
  br i1 %27, label %28, label %36

28:                                               ; preds = %23
  %29 = load i32, ptr %15, align 4, !tbaa !8
  switch i32 %29, label %34 [
    i32 118, label %30
    i32 104, label %33
  ]

30:                                               ; preds = %28
  %31 = load i32, ptr %14, align 4, !tbaa !8
  %32 = xor i32 %31, 1
  store i32 %32, ptr %14, align 4, !tbaa !8
  br label %35

33:                                               ; preds = %28
  br label %78

34:                                               ; preds = %28
  br label %78

35:                                               ; preds = %30
  br label %23, !llvm.loop !16

36:                                               ; preds = %23
  %37 = load i32, ptr %6, align 4, !tbaa !8
  %38 = load i32, ptr @globalUtilOptind, align 4, !tbaa !8
  %39 = add nsw i32 %38, 1
  %40 = icmp ne i32 %37, %39
  br i1 %40, label %41, label %42

41:                                               ; preds = %36
  br label %78

42:                                               ; preds = %36
  %43 = load ptr, ptr %7, align 8, !tbaa !10
  %44 = load i32, ptr @globalUtilOptind, align 4, !tbaa !8
  %45 = sext i32 %44 to i64
  %46 = getelementptr inbounds ptr, ptr %43, i64 %45
  %47 = load ptr, ptr %46, align 8, !tbaa !18
  store ptr %47, ptr %13, align 8, !tbaa !18
  %48 = load ptr, ptr %13, align 8, !tbaa !18
  %49 = call noalias ptr @fopen(ptr noundef %48, ptr noundef @.str.7)
  store ptr %49, ptr %8, align 8, !tbaa !14
  %50 = icmp eq ptr %49, null
  br i1 %50, label %51, label %65

51:                                               ; preds = %42
  %52 = load ptr, ptr %10, align 8, !tbaa !14
  %53 = load ptr, ptr %13, align 8, !tbaa !18
  %54 = call i32 (ptr, ptr, ...) @fprintf(ptr noundef %52, ptr noundef @.str.8, ptr noundef %53) #5
  %55 = load ptr, ptr %13, align 8, !tbaa !18
  %56 = call ptr @Extra_FileGetSimilarName(ptr noundef %55, ptr noundef @.str.9, ptr noundef @.str.10, ptr noundef @.str.11, ptr noundef @.str.12, ptr noundef null)
  store ptr %56, ptr %13, align 8, !tbaa !18
  %57 = icmp ne ptr %56, null
  br i1 %57, label %58, label %62

58:                                               ; preds = %51
  %59 = load ptr, ptr %10, align 8, !tbaa !14
  %60 = load ptr, ptr %13, align 8, !tbaa !18
  %61 = call i32 (ptr, ptr, ...) @fprintf(ptr noundef %59, ptr noundef @.str.13, ptr noundef %60) #5
  br label %62

62:                                               ; preds = %58, %51
  %63 = load ptr, ptr %10, align 8, !tbaa !14
  %64 = call i32 (ptr, ptr, ...) @fprintf(ptr noundef %63, ptr noundef @.str.14) #5
  store i32 1, ptr %4, align 4
  store i32 1, ptr %16, align 4
  br label %114

65:                                               ; preds = %42
  %66 = load ptr, ptr %8, align 8, !tbaa !14
  %67 = call i32 @fclose(ptr noundef %66)
  %68 = load ptr, ptr %13, align 8, !tbaa !18
  %69 = call ptr @If_LibLutRead(ptr noundef %68)
  store ptr %69, ptr %11, align 8, !tbaa !20
  %70 = load ptr, ptr %11, align 8, !tbaa !20
  %71 = icmp eq ptr %70, null
  br i1 %71, label %72, label %75

72:                                               ; preds = %65
  %73 = load ptr, ptr %10, align 8, !tbaa !14
  %74 = call i32 (ptr, ptr, ...) @fprintf(ptr noundef %73, ptr noundef @.str.15) #5
  br label %78

75:                                               ; preds = %65
  %76 = call ptr (...) @Abc_FrameReadLibLut()
  call void @If_LibLutFree(ptr noundef %76)
  %77 = load ptr, ptr %11, align 8, !tbaa !20
  call void @Abc_FrameSetLibLut(ptr noundef %77)
  store i32 0, ptr %4, align 4
  store i32 1, ptr %16, align 4
  br label %114

78:                                               ; preds = %72, %41, %34, %33
  %79 = load ptr, ptr %10, align 8, !tbaa !14
  %80 = call i32 (ptr, ptr, ...) @fprintf(ptr noundef %79, ptr noundef @.str.16) #5
  %81 = load ptr, ptr %10, align 8, !tbaa !14
  %82 = call i32 (ptr, ptr, ...) @fprintf(ptr noundef %81, ptr noundef @.str.17) #5
  %83 = load ptr, ptr %10, align 8, !tbaa !14
  %84 = load i32, ptr %14, align 4, !tbaa !8
  %85 = icmp ne i32 %84, 0
  %86 = select i1 %85, ptr @.str.19, ptr @.str.20
  %87 = call i32 (ptr, ptr, ...) @fprintf(ptr noundef %83, ptr noundef @.str.18, ptr noundef %86) #5
  %88 = load ptr, ptr %10, align 8, !tbaa !14
  %89 = call i32 (ptr, ptr, ...) @fprintf(ptr noundef %88, ptr noundef @.str.21) #5
  %90 = load ptr, ptr %10, align 8, !tbaa !14
  %91 = call i32 (ptr, ptr, ...) @fprintf(ptr noundef %90, ptr noundef @.str.22) #5
  %92 = load ptr, ptr %10, align 8, !tbaa !14
  %93 = call i32 (ptr, ptr, ...) @fprintf(ptr noundef %92, ptr noundef @.str.23) #5
  %94 = load ptr, ptr %10, align 8, !tbaa !14
  %95 = call i32 (ptr, ptr, ...) @fprintf(ptr noundef %94, ptr noundef @.str.24) #5
  %96 = load ptr, ptr %10, align 8, !tbaa !14
  %97 = call i32 (ptr, ptr, ...) @fprintf(ptr noundef %96, ptr noundef @.str.22) #5
  %98 = load ptr, ptr %10, align 8, !tbaa !14
  %99 = call i32 (ptr, ptr, ...) @fprintf(ptr noundef %98, ptr noundef @.str.25) #5
  %100 = load ptr, ptr %10, align 8, !tbaa !14
  %101 = call i32 (ptr, ptr, ...) @fprintf(ptr noundef %100, ptr noundef @.str.26) #5
  %102 = load ptr, ptr %10, align 8, !tbaa !14
  %103 = call i32 (ptr, ptr, ...) @fprintf(ptr noundef %102, ptr noundef @.str.27) #5
  %104 = load ptr, ptr %10, align 8, !tbaa !14
  %105 = call i32 (ptr, ptr, ...) @fprintf(ptr noundef %104, ptr noundef @.str.28) #5
  %106 = load ptr, ptr %10, align 8, !tbaa !14
  %107 = call i32 (ptr, ptr, ...) @fprintf(ptr noundef %106, ptr noundef @.str.29) #5
  %108 = load ptr, ptr %10, align 8, !tbaa !14
  %109 = call i32 (ptr, ptr, ...) @fprintf(ptr noundef %108, ptr noundef @.str.30) #5
  %110 = load ptr, ptr %10, align 8, !tbaa !14
  %111 = call i32 (ptr, ptr, ...) @fprintf(ptr noundef %110, ptr noundef @.str.31) #5
  %112 = load ptr, ptr %10, align 8, !tbaa !14
  %113 = call i32 (ptr, ptr, ...) @fprintf(ptr noundef %112, ptr noundef @.str.32) #5
  store i32 1, ptr %4, align 4
  store i32 1, ptr %16, align 4
  br label %114

114:                                              ; preds = %78, %75, %62
  call void @llvm.lifetime.end.p0(i64 4, ptr %15) #5
  call void @llvm.lifetime.end.p0(i64 4, ptr %14) #5
  call void @llvm.lifetime.end.p0(i64 8, ptr %13) #5
  call void @llvm.lifetime.end.p0(i64 8, ptr %12) #5
  call void @llvm.lifetime.end.p0(i64 8, ptr %11) #5
  call void @llvm.lifetime.end.p0(i64 8, ptr %10) #5
  call void @llvm.lifetime.end.p0(i64 8, ptr %9) #5
  call void @llvm.lifetime.end.p0(i64 8, ptr %8) #5
  %115 = load i32, ptr %4, align 4
  ret i32 %115
}