; Function Attrs: nounwind uwtable
define internal range(i32 0, 2) i32 @If_CommandReadLut(ptr noundef %0, i32 noundef %1, ptr noundef %2) #0 {
  %4 = tail call ptr @Abc_FrameReadNtk(ptr noundef %0) #6
  %5 = tail call ptr @Abc_FrameReadOut(ptr noundef %0) #6
  %6 = tail call ptr @Abc_FrameReadErr(ptr noundef %0) #6
  tail call void (...) @Extra_UtilGetoptReset() #6
  br label %7

7:                                                ; preds = %9, %3
  %.038 = phi i32 [ 1, %3 ], [ %10, %9 ]
  %8 = tail call i32 @Extra_UtilGetopt(i32 noundef %1, ptr noundef %2, ptr noundef nonnull @.str.6) #6
  switch i32 %8, label %.loopexit [
    i32 -1, label %11
    i32 118, label %9
  ]

9:                                                ; preds = %7
  %10 = xor i32 %.038, 1
  br label %7, !llvm.loop !3

11:                                               ; preds = %7
  %12 = load i32, ptr @globalUtilOptind, align 4, !tbaa !5
  %13 = add nsw i32 %12, 1
  %.not43 = icmp eq i32 %1, %13
  br i1 %.not43, label %14, label %.loopexit

14:                                               ; preds = %11
  %15 = sext i32 %12 to i64
  %16 = getelementptr inbounds ptr, ptr %2, i64 %15
  %17 = load ptr, ptr %16, align 8, !tbaa !9
  %18 = tail call noalias ptr @fopen(ptr noundef %17, ptr noundef nonnull @.str.7)
  %19 = icmp eq ptr %18, null
  br i1 %19, label %20, label %26

20:                                               ; preds = %14
  %21 = tail call i32 (ptr, ptr, ...) @fprintf(ptr noundef %6, ptr noundef nonnull @.str.8, ptr noundef %17) #6
  %22 = tail call ptr @Extra_FileGetSimilarName(ptr noundef %17, ptr noundef nonnull @.str.9, ptr noundef nonnull @.str.10, ptr noundef nonnull @.str.11, ptr noundef nonnull @.str.12, ptr noundef null) #6
  %.not44 = icmp eq ptr %22, null
  br i1 %.not44, label %25, label %23

23:                                               ; preds = %20
  %24 = tail call i32 (ptr, ptr, ...) @fprintf(ptr noundef %6, ptr noundef nonnull @.str.13, ptr noundef nonnull %22) #6
  br label %25

25:                                               ; preds = %23, %20
  %fputc = tail call i32 @fputc(i32 10, ptr %6)
  br label %51

26:                                               ; preds = %14
  %27 = tail call i32 @fclose(ptr noundef nonnull %18)
  %28 = tail call ptr @If_LibLutRead(ptr noundef %17) #6
  %29 = icmp eq ptr %28, null
  br i1 %29, label %30, label %32

30:                                               ; preds = %26
  %31 = tail call i64 @fwrite(ptr nonnull @.str.15, i64 32, i64 1, ptr %6)
  br label %.loopexit

32:                                               ; preds = %26
  %33 = tail call ptr (...) @Abc_FrameReadLibLut() #6
  tail call void @If_LibLutFree(ptr noundef %33) #6
  tail call void @Abc_FrameSetLibLut(ptr noundef nonnull %28) #6
  br label %51

.loopexit:                                        ; preds = %7, %11, %30
  %34 = tail call i64 @fwrite(ptr nonnull @.str.16, i64 23, i64 1, ptr %6)
  %35 = tail call i64 @fwrite(ptr nonnull @.str.17, i64 46, i64 1, ptr %6)
  %.not45 = icmp eq i32 %.038, 0
  %36 = select i1 %.not45, ptr @.str.20, ptr @.str.19
  %37 = tail call i32 (ptr, ptr, ...) @fprintf(ptr noundef %6, ptr noundef nonnull @.str.18, ptr noundef nonnull %36) #6
  %38 = tail call i64 @fwrite(ptr nonnull @.str.21, i64 35, i64 1, ptr %6)
  %39 = tail call i64 @fwrite(ptr nonnull @.str.22, i64 42, i64 1, ptr %6)
  %40 = tail call i64 @fwrite(ptr nonnull @.str.23, i64 42, i64 1, ptr %6)
  %41 = tail call i64 @fwrite(ptr nonnull @.str.24, i64 42, i64 1, ptr %6)
  %42 = tail call i64 @fwrite(ptr nonnull @.str.22, i64 42, i64 1, ptr %6)
  %43 = tail call i64 @fwrite(ptr nonnull @.str.25, i64 48, i64 1, ptr %6)
  %44 = tail call i64 @fwrite(ptr nonnull @.str.26, i64 29, i64 1, ptr %6)
  %45 = tail call i64 @fwrite(ptr nonnull @.str.27, i64 27, i64 1, ptr %6)
  %46 = tail call i64 @fwrite(ptr nonnull @.str.28, i64 27, i64 1, ptr %6)
  %47 = tail call i64 @fwrite(ptr nonnull @.str.29, i64 27, i64 1, ptr %6)
  %48 = tail call i64 @fwrite(ptr nonnull @.str.30, i64 27, i64 1, ptr %6)
  %49 = tail call i64 @fwrite(ptr nonnull @.str.31, i64 27, i64 1, ptr %6)
  %50 = tail call i64 @fwrite(ptr nonnull @.str.32, i64 27, i64 1, ptr %6)
  br label %51

51:                                               ; preds = %.loopexit, %32, %25
  %.0 = phi i32 [ 1, %.loopexit ], [ 1, %25 ], [ 0, %32 ]
  ret i32 %.0
}